; Function Attrs: mustprogress uwtable
define void @_ZN6icu_7522TransliteratorRegistry9removeSTVERKNS_13UnicodeStringES3_S3_(ptr noundef nonnull align 8 dereferenceable(312) %this, ptr noundef nonnull align 8 dereferenceable(64) %source, ptr noundef nonnull align 8 dereferenceable(64) %target, ptr noundef nonnull align 8 dereferenceable(64) %variant) local_unnamed_addr #1 align 2 personality ptr @__gxx_personality_v0 {
entry:
  %status = alloca i32, align 4
  store i32 0, ptr %status, align 4
  %specDAG = getelementptr inbounds i8, ptr %this, i64 96
  %0 = load ptr, ptr %specDAG, align 8
  %call.i = tail call noundef ptr @uhash_get_75(ptr noundef %0, ptr noundef nonnull %source)
  %cmp = icmp eq ptr %call.i, null
  br i1 %cmp, label %if.end20, label %if.end

if.end:                                           ; preds = %entry
  %1 = load ptr, ptr %call.i, align 8
  %call.i12 = tail call noundef i32 @uhash_geti_75(ptr noundef %1, ptr noundef nonnull %target)
  %cmp3 = icmp eq i32 %call.i12, 0
  br i1 %cmp3, label %if.end20, label %if.end5

if.end5:                                          ; preds = %if.end
  %variantList = getelementptr inbounds i8, ptr %this, i64 184
  %call6 = tail call noundef i32 @_ZNK6icu_757UVector7indexOfEPvi(ptr noundef nonnull align 8 dereferenceable(40) %variantList, ptr noundef nonnull %variant, i32 noundef 0)
  %cmp7 = icmp slt i32 %call6, 0
  br i1 %cmp7, label %if.end20, label %if.end9

if.end9:                                          ; preds = %if.end5
  %shl = shl nuw i32 1, %call6
  %not = xor i32 %shl, -1
  %and = and i32 %call.i12, %not
  %cmp10.not = icmp eq i32 %and, 0
  %2 = load ptr, ptr %call.i, align 8
  br i1 %cmp10.not, label %if.else, label %if.then11

if.then11:                                        ; preds = %if.end9
  %call.i13 = tail call noundef ptr @_ZN6icu_757UMemorynwEm(i64 noundef 64) #15
  %new.isnull.i = icmp eq ptr %call.i13, null
  br i1 %new.isnull.i, label %_ZN6icu_759Hashtable4putiERKNS_13UnicodeStringEiR10UErrorCode.exit, label %new.notnull.i

new.notnull.i:                                    ; preds = %if.then11
  invoke void @_ZN6icu_7513UnicodeStringC1ERKS0_(ptr noundef nonnull align 8 dereferenceable(64) %call.i13, ptr noundef nonnull align 8 dereferenceable(64) %target)
          to label %_ZN6icu_759Hashtable4putiERKNS_13UnicodeStringEiR10UErrorCode.exit unwind label %lpad.i

lpad.i:                                           ; preds = %new.notnull.i
  %3 = landingpad { ptr, i32 }
          cleanup
  tail call void @_ZN6icu_757UMemorydlEPv(ptr noundef nonnull %call.i13) #15
  resume { ptr, i32 } %3

_ZN6icu_759Hashtable4putiERKNS_13UnicodeStringEiR10UErrorCode.exit: ; preds = %if.then11, %new.notnull.i
  %call2.i = call noundef i32 @uhash_puti_75(ptr noundef %2, ptr noundef %call.i13, i32 noundef %and, ptr noundef nonnull %status)
  br label %if.end20

if.else:                                          ; preds = %if.end9
  %call.i14 = tail call noundef ptr @uhash_remove_75(ptr noundef %2, ptr noundef nonnull %target)
  %4 = load ptr, ptr %call.i, align 8
  %call.i15 = tail call noundef i32 @uhash_count_75(ptr noundef %4)
  %cmp15 = icmp eq i32 %call.i15, 0
  br i1 %cmp15, label %if.then16, label %if.end20

if.then16:                                        ; preds = %if.else
  %5 = load ptr, ptr %specDAG, align 8
  %call.i16 = tail call noundef ptr @uhash_remove_75(ptr noundef %5, ptr noundef nonnull %source)
  br label %if.end20

if.end20:                                         ; preds = %if.else, %if.then16, %if.end5, %if.end, %entry, %_ZN6icu_759Hashtable4putiERKNS_13UnicodeStringEiR10UErrorCode.exit
  ret void
}